target datalayout = "e-m:e-p270:32:32-p271:32:32-p272:64:64-i64:64-i128:128-f80:128-n8:16:32:64-S128"
target triple = "x86_64-pc-linux-gnu"

%struct.ProfileState = type { ptr, ptr, ptr, %struct.SBuf, i32, i32, i32, %struct.sigaction }
%struct.SBuf = type { ptr, ptr, ptr, %struct.MRef }
%struct.MRef = type { i64 }
%struct.sigaction = type { %union.anon, %struct.__sigset_t, i32, ptr }
%union.anon = type { ptr }
%struct.__sigset_t = type { [16 x i64] }
%struct.lua_State = type { %struct.GCRef, i8, i8, i8, i8, %struct.MRef, %struct.GCRef, ptr, ptr, %struct.MRef, %struct.MRef, %struct.GCRef, %struct.GCRef, ptr, i32 }
%struct.GCRef = type { i64 }
%struct.global_State = type { ptr, ptr, %struct.GCState, %struct.GCstr, i8, i8, i8, i8, %struct.StrInternState, i32, %struct.GCRef, %struct.SBuf, %union.TValue, %union.TValue, %struct.Node, %union.TValue, %struct.GCupval, i32, i32, ptr, ptr, ptr, i32, i32, %struct.GCRef, %struct.MRef, %struct.MRef, %struct.PRNGState, [39 x %struct.GCRef] }
%struct.GCState = type { i64, i64, i8, i8, i8, i8, i32, %struct.GCRef, %struct.MRef, %struct.GCRef, %struct.GCRef, %struct.GCRef, %struct.GCRef, i64, i64, i32, i32, %struct.MRef }
%struct.GCstr = type { %struct.GCRef, i8, i8, i8, i8, i32, i32, i32 }
%struct.StrInternState = type { ptr, i32, i32, i32, i8, i8, i8, i8, i64 }
%struct.Node = type { %union.TValue, %union.TValue, %struct.MRef }
%union.TValue = type { i64 }
%struct.GCupval = type { %struct.GCRef, i8, i8, i8, i8, %union.anon.1, %struct.MRef, i32 }
%union.anon.1 = type { %struct.anon.2 }
%struct.anon.2 = type { %struct.GCRef, %struct.GCRef }
%struct.PRNGState = type { [4 x i64] }

@profile_state = internal global %struct.ProfileState zeroinitializer, align 8

; Function Attrs: nounwind uwtable
define hidden void @lj_profile_interpreter(ptr noundef %0) #0 {
  %2 = alloca ptr, align 8
  %3 = alloca ptr, align 8
  %4 = alloca ptr, align 8
  %5 = alloca i8, align 1
  %6 = alloca i32, align 4
  store ptr %0, ptr %2, align 8, !tbaa !4
  call void @llvm.lifetime.start.p0(i64 8, ptr %3) #5
  store ptr @profile_state, ptr %3, align 8, !tbaa !9
  call void @llvm.lifetime.start.p0(i64 8, ptr %4) #5
  %7 = load ptr, ptr %2, align 8, !tbaa !4
  %8 = getelementptr inbounds nuw %struct.lua_State, ptr %7, i32 0, i32 5
  %9 = getelementptr inbounds nuw %struct.MRef, ptr %8, i32 0, i32 0
  %10 = load i64, ptr %9, align 8, !tbaa !11
  %11 = inttoptr i64 %10 to ptr
  store ptr %11, ptr %4, align 8, !tbaa !18
  call void @llvm.lifetime.start.p0(i64 1, ptr %5) #5
  %12 = load ptr, ptr %4, align 8, !tbaa !18
  %13 = getelementptr inbounds nuw %struct.global_State, ptr %12, i32 0, i32 5
  %14 = load i8, ptr %13, align 1, !tbaa !20
  %15 = zext i8 %14 to i32
  %16 = and i32 %15, -129
  %17 = trunc i32 %16 to i8
  store i8 %17, ptr %5, align 1, !tbaa !31
  %18 = load i8, ptr %5, align 1, !tbaa !31
  %19 = zext i8 %18 to i32
  %20 = and i32 %19, 32
  %21 = icmp ne i32 %20, 0
  br i1 %21, label %51, label %22

22:                                               ; preds = %1
  call void @llvm.lifetime.start.p0(i64 4, ptr %6) #5
  %23 = load ptr, ptr %3, align 8, !tbaa !9
  %24 = getelementptr inbounds nuw %struct.ProfileState, ptr %23, i32 0, i32 5
  %25 = load i32, ptr %24, align 4, !tbaa !32
  store i32 %25, ptr %6, align 4, !tbaa !36
  %26 = load ptr, ptr %3, align 8, !tbaa !9
  %27 = getelementptr inbounds nuw %struct.ProfileState, ptr %26, i32 0, i32 5
  store i32 0, ptr %27, align 4, !tbaa !32
  %28 = load ptr, ptr %4, align 8, !tbaa !18
  %29 = getelementptr inbounds nuw %struct.global_State, ptr %28, i32 0, i32 5
  store i8 32, ptr %29, align 1, !tbaa !20
  %30 = load ptr, ptr %4, align 8, !tbaa !18
  call void @lj_dispatch_update(ptr noundef %30)
  %31 = load ptr, ptr %3, align 8, !tbaa !9
  %32 = getelementptr inbounds nuw %struct.ProfileState, ptr %31, i32 0, i32 1
  %33 = load ptr, ptr %32, align 8, !tbaa !37
  %34 = load ptr, ptr %3, align 8, !tbaa !9
  %35 = getelementptr inbounds nuw %struct.ProfileState, ptr %34, i32 0, i32 2
  %36 = load ptr, ptr %35, align 8, !tbaa !38
  %37 = load ptr, ptr %2, align 8, !tbaa !4
  %38 = load i32, ptr %6, align 4, !tbaa !36
  %39 = load ptr, ptr %3, align 8, !tbaa !9
  %40 = getelementptr inbounds nuw %struct.ProfileState, ptr %39, i32 0, i32 6
  %41 = load i32, ptr %40, align 8, !tbaa !39
  call void %33(ptr noundef %36, ptr noundef %37, i32 noundef %38, i32 noundef %41)
  %42 = load ptr, ptr %4, align 8, !tbaa !18
  %43 = getelementptr inbounds nuw %struct.global_State, ptr %42, i32 0, i32 5
  %44 = load i8, ptr %43, align 1, !tbaa !20
  %45 = zext i8 %44 to i32
  %46 = and i32 %45, 128
  %47 = load i8, ptr %5, align 1, !tbaa !31
  %48 = zext i8 %47 to i32
  %49 = or i32 %48, %46
  %50 = trunc i32 %49 to i8
  store i8 %50, ptr %5, align 1, !tbaa !31
  call void @llvm.lifetime.end.p0(i64 4, ptr %6) #5
  br label %51

51:                                               ; preds = %22, %1
  %52 = load i8, ptr %5, align 1, !tbaa !31
  %53 = load ptr, ptr %4, align 8, !tbaa !18
  %54 = getelementptr inbounds nuw %struct.global_State, ptr %53, i32 0, i32 5
  store i8 %52, ptr %54, align 1, !tbaa !20
  %55 = load ptr, ptr %4, align 8, !tbaa !18
  call void @lj_dispatch_update(ptr noundef %55)
  call void @llvm.lifetime.end.p0(i64 1, ptr %5) #5
  call void @llvm.lifetime.end.p0(i64 8, ptr %4) #5
  call void @llvm.lifetime.end.p0(i64 8, ptr %3) #5
  ret void
}