; Function Attrs: nounwind uwtable
define hidden void @lj_profile_interpreter(ptr noundef %0) local_unnamed_addr #0 {
  %2 = getelementptr inbounds nuw i8, ptr %0, i64 16
  %3 = load i64, ptr %2, align 8, !tbaa !4
  %4 = inttoptr i64 %3 to ptr
  %5 = getelementptr inbounds nuw i8, ptr %4, i64 145
  %6 = load i8, ptr %5, align 1, !tbaa !14
  %7 = and i8 %6, 127
  %8 = and i8 %6, 32
  %.not = icmp eq i8 %8, 0
  br i1 %.not, label %9, label %17

9:                                                ; preds = %1
  %10 = load i32, ptr getelementptr inbounds nuw (i8, ptr @profile_state, i64 60), align 4, !tbaa !25
  store i32 0, ptr getelementptr inbounds nuw (i8, ptr @profile_state, i64 60), align 4, !tbaa !25
  store i8 32, ptr %5, align 1, !tbaa !14
  tail call void @lj_dispatch_update(ptr noundef nonnull %4) #7
  %11 = load ptr, ptr getelementptr inbounds nuw (i8, ptr @profile_state, i64 8), align 8, !tbaa !30
  %12 = load ptr, ptr getelementptr inbounds nuw (i8, ptr @profile_state, i64 16), align 8, !tbaa !31
  %13 = load i32, ptr getelementptr inbounds nuw (i8, ptr @profile_state, i64 64), align 8, !tbaa !32
  tail call void %11(ptr noundef %12, ptr noundef nonnull %0, i32 noundef %10, i32 noundef %13) #7
  %14 = load i8, ptr %5, align 1, !tbaa !14
  %15 = and i8 %14, -128
  %16 = or disjoint i8 %15, %7
  br label %17

17:                                               ; preds = %9, %1
  %.0 = phi i8 [ %7, %1 ], [ %16, %9 ]
  store i8 %.0, ptr %5, align 1, !tbaa !14
  tail call void @lj_dispatch_update(ptr noundef nonnull %4) #7
  ret void
}